; Function Attrs: nounwind sspstrong uwtable
define internal noundef i64 @strscan_matched(i64 noundef %0) #0 {
  %2 = tail call ptr @rb_check_typeddata(i64 noundef %0, ptr noundef nonnull @strscanner_type) #12
  %3 = getelementptr inbounds nuw i8, ptr %2, i64 8
  %4 = load i64, ptr %3, align 8, !tbaa !23
  %5 = icmp eq i64 %4, 4
  br i1 %5, label %6, label %8

6:                                                ; preds = %1
  %7 = load i64, ptr @rb_eArgError, align 8, !tbaa !10
  tail call void (i64, ptr, ...) @rb_raise(i64 noundef %7, ptr noundef nonnull @.str.66) #14
  unreachable

8:                                                ; preds = %1
  %9 = load i64, ptr %2, align 8, !tbaa !18
  %10 = and i64 %9, 1
  %.not = icmp eq i64 %10, 0
  br i1 %.not, label %extract_range.exit, label %11

11:                                               ; preds = %8
  %12 = getelementptr inbounds nuw i8, ptr %2, i64 40
  %13 = load ptr, ptr %12, align 8, !tbaa !43
  %14 = load i64, ptr %13, align 8, !tbaa !10
  %15 = getelementptr inbounds nuw i8, ptr %2, i64 64
  %16 = load i8, ptr %15, align 8, !tbaa !27, !range !41, !noundef !42
  %17 = trunc nuw i8 %16 to i1
  br i1 %17, label %adjust_register_position.exit.thread, label %21

adjust_register_position.exit.thread:             ; preds = %11
  %18 = getelementptr inbounds nuw i8, ptr %2, i64 48
  %19 = load ptr, ptr %18, align 8, !tbaa !44
  %20 = load i64, ptr %19, align 8, !tbaa !10
  br label %adjust_register_position.exit9

21:                                               ; preds = %11
  %22 = getelementptr inbounds nuw i8, ptr %2, i64 16
  %23 = load i64, ptr %22, align 8, !tbaa !28
  %24 = add nsw i64 %23, %14
  %25 = getelementptr inbounds nuw i8, ptr %2, i64 48
  %26 = load ptr, ptr %25, align 8, !tbaa !44
  %27 = load i64, ptr %26, align 8, !tbaa !10
  %28 = add nsw i64 %27, %23
  br label %adjust_register_position.exit9

adjust_register_position.exit9:                   ; preds = %adjust_register_position.exit.thread, %21
  %.0.i12 = phi i64 [ %24, %21 ], [ %14, %adjust_register_position.exit.thread ]
  %.0.i8 = phi i64 [ %28, %21 ], [ %20, %adjust_register_position.exit.thread ]
  %29 = inttoptr i64 %4 to ptr
  %30 = getelementptr inbounds nuw i8, ptr %29, i64 16
  %31 = load i64, ptr %30, align 8, !tbaa !32
  %32 = icmp sgt i64 %.0.i12, %31
  br i1 %32, label %extract_range.exit, label %33

33:                                               ; preds = %adjust_register_position.exit9
  %34 = tail call noundef i64 @llvm.smin.i64(i64 %.0.i8, i64 %31)
  %35 = load i64, ptr %29, align 8, !tbaa !34, !noalias !73
  %36 = and i64 %35, 8192
  %.not.i.i.i = icmp eq i64 %36, 0
  %37 = getelementptr inbounds nuw i8, ptr %29, i64 24
  br i1 %.not.i.i.i, label %RSTRING_PTR.exit.i, label %38

38:                                               ; preds = %33
  %.sroa.2.0.copyload.i.i = load ptr, ptr %37, align 8
  br label %RSTRING_PTR.exit.i

RSTRING_PTR.exit.i:                               ; preds = %38, %33
  %.sroa.2.0.i.i = phi ptr [ %.sroa.2.0.copyload.i.i, %38 ], [ %37, %33 ]
  %39 = getelementptr inbounds i8, ptr %.sroa.2.0.i.i, i64 %.0.i12
  %40 = sub nsw i64 %34, %.0.i12
  %41 = tail call i64 @rb_str_new(ptr noundef %39, i64 noundef %40) #12
  %42 = load i64, ptr %3, align 8, !tbaa !23
  tail call void @rb_enc_copy(i64 noundef %41, i64 noundef %42) #12
  br label %extract_range.exit

extract_range.exit:                               ; preds = %RSTRING_PTR.exit.i, %adjust_register_position.exit9, %8
  %.0 = phi i64 [ 4, %8 ], [ %41, %RSTRING_PTR.exit.i ], [ 4, %adjust_register_position.exit9 ]
  ret i64 %.0
}